(dp0
VServer
p1
Vcmsweb.cern.ch
p2
sVPort
p3
V
p4
sVRequestName
p5
V241109_114917:bhbam_crab_RHAnalyzer_ATo4Tau_Hadronic_m3p6To18
p6
sVvoRole
p7
VNULL
p8
sVvoGroup
p9
g4
sVinstance
p10
Vprod
p11
sVOriginalConfig
p12
ccopy_reg
_reconstructor
p13
(cWMCore.Configuration
Configuration
p14
c__builtin__
object
p15
Ntp16
Rp17
(dp18
V_internal_sections
p19
(lp20
VGeneral
p21
aVJobType
p22
aVData
p23
aVSite
p24
aVUser
p25
aVDebug
p26
asg21
g13
(cWMCore.Configuration
ConfigSection
p27
g15
Ntp28
Rp29
(dp30
V_internal_documentation
p31
g4
sV_internal_name
p32
g21
sV_internal_settings
p33
c__builtin__
set
p34
((lp35
VtransferLogs
p36
aVworkArea
p37
aVrequestName
p38
aVtransferOutputs
p39
atp40
Rp41
sV_internal_docstrings
p42
(dp43
sV_internal_children
p44
g34
((lp45
tp46
Rp47
sV_internal_parent_ref
p48
NsV_internal_skipChecks
p49
I00
sg37
Vcrab_RHAnalyzer
p50
sg38
VRHAnalyzer_ATo4Tau_Hadronic_m3p6To18
p51
sg39
I01
sg36
I01
sbsg22
g13
(g27
g15
Ntp52
Rp53
(dp54
g31
g4
sg32
g22
sg33
g34
((lp55
VallowUndistributedCMSSW
p56
aVpsetName
p57
aVmaxMemoryMB
p58
aVpluginName
p59
atp60
Rp61
sg42
(dp62
sg44
g34
((lp63
tp64
Rp65
sg48
Nsg49
I00
sg59
VAnalysis
p66
sg57
VRecHitAnalyzer/python/ConfFile_cfg.py
p67
sg58
I5000
sg56
I01
sbsg23
g13
(g27
g15
Ntp68
Rp69
(dp70
g31
g4
sg32
g23
sg33
g34
((lp71
VoutLFNDirBase
p72
aVtotalUnits
p73
aVinputDBS
p74
aVunitsPerJob
p75
aVoutputDatasetTag
p76
aVsplitting
p77
aVpublication
p78
aVinputDataset
p79
atp80
Rp81
sg42
(dp82
sg44
g34
((lp83
tp84
Rp85
sg48
Nsg49
I00
sg74
Vphys03
p86
sg79
V/GEN_SIM_ATo2Tau_m3p6To18_pt30To300_v2/lpcml-AOD_ATo4Tau_Hadronic_m3p6To18-953b1873547799e513f8a43f2c57e3b2/USER
p87
sg77
VFileBased
p88
sg75
I1
sg73
I-1
sg78
I00
sg72
V/store/group/lpcml/bbbam/Ntuples_run3
p89
sg76
g51
sbsg24
g13
(g27
g15
Ntp90
Rp91
(dp92
g31
g4
sg32
g24
sg33
g34
((lp93
VstorageSite
p94
atp95
Rp96
sg42
(dp97
sg44
g34
((lp98
tp99
Rp100
sg48
Nsg49
I00
sg94
VT3_US_FNALLPC
p101
sbsg25
g13
(g27
g15
Ntp102
Rp103
(dp104
g31
g4
sg32
g25
sg33
g34
((lp105
tp106
Rp107
sg42
(dp108
sg44
g34
((lp109
tp110
Rp111
sg48
Nsg49
I00
sbsg26
g13
(g27
g15
Ntp112
Rp113
(dp114
g31
g4
sg32
g26
sg33
g34
((lp115
tp116
Rp117
sg42
(dp118
sg44
g34
((lp119
tp120
Rp121
sg48
Nsg49
I00
sbsbs.