(dp0
VServer
p1
Vcmsweb.cern.ch
p2
sVPort
p3
V
p4
sVRequestName
p5
V241108_195542:bhbam_crab_RHAnalyzer_ATo4Tau_Hadronic_m1p2To3p6
p6
sVvoRole
p7
VNULL
p8
sVvoGroup
p9
g4
sVinstance
p10
Vprod
p11
sVOriginalConfig
p12
ccopy_reg
_reconstructor
p13
(cWMCore.Configuration
Configuration
p14
c__builtin__
object
p15
Ntp16
Rp17
(dp18
V_internal_sections
p19
(lp20
VGeneral
p21
aVJobType
p22
aVData
p23
aVSite
p24
aVUser
p25
aVDebug
p26
asg21
g13
(cWMCore.Configuration
ConfigSection
p27
g15
Ntp28
Rp29
(dp30
V_internal_documentation
p31
g4
sV_internal_name
p32
g21
sV_internal_settings
p33
c__builtin__
set
p34
((lp35
VrequestName
p36
aVtransferOutputs
p37
aVworkArea
p38
aVtransferLogs
p39
atp40
Rp41
sV_internal_docstrings
p42
(dp43
sV_internal_children
p44
g34
((lp45
tp46
Rp47
sV_internal_parent_ref
p48
NsV_internal_skipChecks
p49
I00
sg38
Vcrab_RHAnalyzer
p50
sg36
VRHAnalyzer_ATo4Tau_Hadronic_m1p2To3p6
p51
sg37
I01
sg39
I01
sbsg22
g13
(g27
g15
Ntp52
Rp53
(dp54
g31
g4
sg32
g22
sg33
g34
((lp55
VallowUndistributedCMSSW
p56
aVpsetName
p57
aVpluginName
p58
atp59
Rp60
sg42
(dp61
sg44
g34
((lp62
tp63
Rp64
sg48
Nsg49
I00
sg58
VAnalysis
p65
sg57
VRecHitAnalyzer/python/ConfFile_cfg.py
p66
sg56
I01
sbsg23
g13
(g27
g15
Ntp67
Rp68
(dp69
g31
g4
sg32
g23
sg33
g34
((lp70
VoutLFNDirBase
p71
aVoutputDatasetTag
p72
aVinputDBS
p73
aVsplitting
p74
aVunitsPerJob
p75
aVtotalUnits
p76
aVinputDataset
p77
aVpublication
p78
atp79
Rp80
sg42
(dp81
sg44
g34
((lp82
tp83
Rp84
sg48
Nsg49
I00
sg73
Vphys03
p85
sg77
V/GEN_SIM_ATo2Tau_m1p2To3p6_pt30To300_v4/lpcml-AOD_ATo4Tau_Hadronic_m1p2To3p6-953b1873547799e513f8a43f2c57e3b2/USER
p86
sg74
VFileBased
p87
sg75
I1
sg76
I-1
sg78
I00
sg71
V/store/group/lpcml/bbbam/Ntuples_run3
p88
sg72
g51
sbsg24
g13
(g27
g15
Ntp89
Rp90
(dp91
g31
g4
sg32
g24
sg33
g34
((lp92
VstorageSite
p93
atp94
Rp95
sg42
(dp96
sg44
g34
((lp97
tp98
Rp99
sg48
Nsg49
I00
sg93
VT3_US_FNALLPC
p100
sbsg25
g13
(g27
g15
Ntp101
Rp102
(dp103
g31
g4
sg32
g25
sg33
g34
((lp104
tp105
Rp106
sg42
(dp107
sg44
g34
((lp108
tp109
Rp110
sg48
Nsg49
I00
sbsg26
g13
(g27
g15
Ntp111
Rp112
(dp113
g31
g4
sg32
g26
sg33
g34
((lp114
tp115
Rp116
sg42
(dp117
sg44
g34
((lp118
tp119
Rp120
sg48
Nsg49
I00
sbsbs.